; Function Attrs: null_pointer_is_valid sspstrong uwtable
define internal noundef zeroext i1 @ems_seek_read(ptr noundef readonly captures(none) %0, i64 noundef %1, ptr noundef %2, ptr noundef %3, ptr noundef %4) #0 {
  %6 = getelementptr inbounds nuw i8, ptr %0, i64 8
  %7 = load ptr, ptr %6, align 8
  %8 = tail call i64 @file_seek(ptr noundef %7, i64 noundef %1, i32 noundef 0, ptr noundef %3)
  %9 = icmp eq i64 %8, -1
  %10 = load ptr, ptr %6, align 8
  br i1 %9, label %11, label %13

11:                                               ; preds = %5
  %12 = tail call i32 @file_error(ptr noundef %10, ptr noundef %4)
  store i32 %12, ptr %3, align 4
  br label %15

13:                                               ; preds = %5
  %14 = tail call fastcc zeroext i1 @ems_read_message(ptr noundef %10, ptr noundef %2, ptr noundef %3, ptr noundef %4)
  br label %15

15:                                               ; preds = %13, %11
  %.0 = phi i1 [ false, %11 ], [ %14, %13 ]
  ret i1 %.0
}